target datalayout = "e-m:e-p270:32:32-p271:32:32-p272:64:64-i64:64-i128:128-f80:128-n8:16:32:64-S128"
target triple = "x86_64-pc-linux-gnu"

%struct.AVFilterContext = type { ptr, ptr, ptr, ptr, ptr, i32, ptr, ptr, i32, ptr, ptr, i32, i32, ptr, ptr, ptr, ptr, i32, ptr, i32, i32 }
%struct.VAAPIVPPContext = type { ptr, ptr, ptr, i32, i32, i32, ptr, ptr, %struct._VARectangle, i32, i32, i32, [10 x i32], i32, i32, ptr, ptr }
%struct._VARectangle = type { i16, i16, i16, i16 }
%struct.DeintVAAPIContext = type { %struct.VAAPIVPPContext, i32, i32, i32, [5 x %struct._VAProcFilterCapDeinterlacing], i32, %struct._VAProcPipelineCaps, i32, i32, [8 x ptr], i32, i32, i32 }
%struct._VAProcFilterCapDeinterlacing = type { i32, [4 x i32] }
%struct._VAProcPipelineCaps = type { i32, i32, i32, i32, ptr, i32, ptr, i32, i32, i32, i32, i32, i32, ptr, i32, ptr, i32, i32, i32, i32, i32, i32, i32, i32, [14 x i32] }
%struct.AVVAAPIDeviceContext = type { ptr, i32 }
%struct._VAProcFilterParameterBufferDeinterlacing = type { i32, i32, i32, [4 x i32] }

@.str.33 = private unnamed_addr constant [46 x i8] c"Failed to query deinterlacing caps: %d (%s).\0A\00", align 1
@.str.34 = private unnamed_addr constant [48 x i8] c"Picking %d (%s) as default deinterlacing mode.\0A\00", align 1
@.str.35 = private unnamed_addr constant [46 x i8] c"Deinterlacing mode %d (%s) is not supported.\0A\00", align 1
@.str.36 = private unnamed_addr constant [41 x i8] c"Failed to query pipeline caps: %d (%s).\0A\00", align 1
@.str.37 = private unnamed_addr constant [62 x i8] c"Pipeline requires too many references (%u forward, %u back).\0A\00", align 1
@.str.38 = private unnamed_addr constant [4 x i8] c"Bob\00", align 1
@.str.39 = private unnamed_addr constant [6 x i8] c"Weave\00", align 1
@.str.40 = private unnamed_addr constant [15 x i8] c"MotionAdaptive\00", align 1
@.str.41 = private unnamed_addr constant [18 x i8] c"MotionCompensated\00", align 1
@.str.42 = private unnamed_addr constant [8 x i8] c"Invalid\00", align 1

; Function Attrs: nounwind uwtable
define internal ptr @deint_vaapi_mode_name(i32 noundef %0) #2 {
  %2 = alloca ptr, align 8
  %3 = alloca i32, align 4
  store i32 %0, ptr %3, align 4, !tbaa !62
  %4 = load i32, ptr %3, align 4, !tbaa !62
  switch i32 %4, label %9 [
    i32 1, label %5
    i32 2, label %6
    i32 3, label %7
    i32 4, label %8
  ]

5:                                                ; preds = %1
  store ptr @.str.38, ptr %2, align 8
  br label %10

6:                                                ; preds = %1
  store ptr @.str.39, ptr %2, align 8
  br label %10

7:                                                ; preds = %1
  store ptr @.str.40, ptr %2, align 8
  br label %10

8:                                                ; preds = %1
  store ptr @.str.41, ptr %2, align 8
  br label %10

9:                                                ; preds = %1
  store ptr @.str.42, ptr %2, align 8
  br label %10

10:                                               ; preds = %9, %8, %7, %6, %5
  %11 = load ptr, ptr %2, align 8
  ret ptr %11
}

; Function Attrs: nounwind uwtable
define internal i32 @deint_vaapi_build_filter_params(ptr noundef %0) #2 {
  %2 = alloca i32, align 4
  %3 = alloca ptr, align 8
  %4 = alloca ptr, align 8
  %5 = alloca ptr, align 8
  %6 = alloca i32, align 4
  %7 = alloca %struct._VAProcFilterParameterBufferDeinterlacing, align 4
  %8 = alloca i32, align 4
  %9 = alloca i32, align 4
  store ptr %0, ptr %3, align 8, !tbaa !4
  call void @llvm.lifetime.start.p0(i64 8, ptr %4) #7
  %10 = load ptr, ptr %3, align 8, !tbaa !4
  %11 = getelementptr inbounds nuw %struct.AVFilterContext, ptr %10, i32 0, i32 9
  %12 = load ptr, ptr %11, align 8, !tbaa !9
  store ptr %12, ptr %4, align 8, !tbaa !22
  call void @llvm.lifetime.start.p0(i64 8, ptr %5) #7
  %13 = load ptr, ptr %3, align 8, !tbaa !4
  %14 = getelementptr inbounds nuw %struct.AVFilterContext, ptr %13, i32 0, i32 9
  %15 = load ptr, ptr %14, align 8, !tbaa !9
  store ptr %15, ptr %5, align 8, !tbaa !45
  call void @llvm.lifetime.start.p0(i64 4, ptr %6) #7
  call void @llvm.lifetime.start.p0(i64 28, ptr %7) #7
  call void @llvm.lifetime.start.p0(i64 4, ptr %8) #7
  %16 = load ptr, ptr %5, align 8, !tbaa !45
  %17 = getelementptr inbounds nuw %struct.DeintVAAPIContext, ptr %16, i32 0, i32 5
  store i32 5, ptr %17, align 8, !tbaa !107
  %18 = load ptr, ptr %4, align 8, !tbaa !22
  %19 = getelementptr inbounds nuw %struct.VAAPIVPPContext, ptr %18, i32 0, i32 1
  %20 = load ptr, ptr %19, align 8, !tbaa !77
  %21 = getelementptr inbounds nuw %struct.AVVAAPIDeviceContext, ptr %20, i32 0, i32 0
  %22 = load ptr, ptr %21, align 8, !tbaa !78
  %23 = load ptr, ptr %4, align 8, !tbaa !22
  %24 = getelementptr inbounds nuw %struct.VAAPIVPPContext, ptr %23, i32 0, i32 5
  %25 = load i32, ptr %24, align 8, !tbaa !108
  %26 = load ptr, ptr %5, align 8, !tbaa !45
  %27 = getelementptr inbounds nuw %struct.DeintVAAPIContext, ptr %26, i32 0, i32 4
  %28 = load ptr, ptr %5, align 8, !tbaa !45
  %29 = getelementptr inbounds nuw %struct.DeintVAAPIContext, ptr %28, i32 0, i32 5
  %30 = call i32 @vaQueryVideoProcFilterCaps(ptr noundef %22, i32 noundef %25, i32 noundef 2, ptr noundef %27, ptr noundef %29)
  store i32 %30, ptr %6, align 4, !tbaa !62
  %31 = load i32, ptr %6, align 4, !tbaa !62
  %32 = icmp ne i32 %31, 0
  br i1 %32, label %33, label %38

33:                                               ; preds = %1
  %34 = load ptr, ptr %3, align 8, !tbaa !4
  %35 = load i32, ptr %6, align 4, !tbaa !62
  %36 = load i32, ptr %6, align 4, !tbaa !62
  %37 = call ptr @vaErrorStr(i32 noundef %36)
  call void (ptr, i32, ptr, ...) @av_log(ptr noundef %34, i32 noundef 16, ptr noundef @.str.33, i32 noundef %35, ptr noundef %37)
  store i32 -5, ptr %2, align 4
  store i32 1, ptr %9, align 4
  br label %207

38:                                               ; preds = %1
  %39 = load ptr, ptr %5, align 8, !tbaa !45
  %40 = getelementptr inbounds nuw %struct.DeintVAAPIContext, ptr %39, i32 0, i32 1
  %41 = load i32, ptr %40, align 8, !tbaa !109
  %42 = icmp eq i32 %41, 0
  br i1 %42, label %43, label %85

43:                                               ; preds = %38
  store i32 0, ptr %8, align 4, !tbaa !62
  br label %44

44:                                               ; preds = %73, %43
  %45 = load i32, ptr %8, align 4, !tbaa !62
  %46 = load ptr, ptr %5, align 8, !tbaa !45
  %47 = getelementptr inbounds nuw %struct.DeintVAAPIContext, ptr %46, i32 0, i32 5
  %48 = load i32, ptr %47, align 8, !tbaa !107
  %49 = icmp slt i32 %45, %48
  br i1 %49, label %50, label %76

50:                                               ; preds = %44
  %51 = load ptr, ptr %5, align 8, !tbaa !45
  %52 = getelementptr inbounds nuw %struct.DeintVAAPIContext, ptr %51, i32 0, i32 4
  %53 = load i32, ptr %8, align 4, !tbaa !62
  %54 = sext i32 %53 to i64
  %55 = getelementptr inbounds [5 x %struct._VAProcFilterCapDeinterlacing], ptr %52, i64 0, i64 %54
  %56 = getelementptr inbounds nuw %struct._VAProcFilterCapDeinterlacing, ptr %55, i32 0, i32 0
  %57 = load i32, ptr %56, align 4, !tbaa !110
  %58 = load ptr, ptr %5, align 8, !tbaa !45
  %59 = getelementptr inbounds nuw %struct.DeintVAAPIContext, ptr %58, i32 0, i32 1
  %60 = load i32, ptr %59, align 8, !tbaa !109
  %61 = icmp ugt i32 %57, %60
  br i1 %61, label %62, label %72

62:                                               ; preds = %50
  %63 = load ptr, ptr %5, align 8, !tbaa !45
  %64 = getelementptr inbounds nuw %struct.DeintVAAPIContext, ptr %63, i32 0, i32 4
  %65 = load i32, ptr %8, align 4, !tbaa !62
  %66 = sext i32 %65 to i64
  %67 = getelementptr inbounds [5 x %struct._VAProcFilterCapDeinterlacing], ptr %64, i64 0, i64 %66
  %68 = getelementptr inbounds nuw %struct._VAProcFilterCapDeinterlacing, ptr %67, i32 0, i32 0
  %69 = load i32, ptr %68, align 4, !tbaa !110
  %70 = load ptr, ptr %5, align 8, !tbaa !45
  %71 = getelementptr inbounds nuw %struct.DeintVAAPIContext, ptr %70, i32 0, i32 1
  store i32 %69, ptr %71, align 8, !tbaa !109
  br label %72

72:                                               ; preds = %62, %50
  br label %73

73:                                               ; preds = %72
  %74 = load i32, ptr %8, align 4, !tbaa !62
  %75 = add nsw i32 %74, 1
  store i32 %75, ptr %8, align 4, !tbaa !62
  br label %44, !llvm.loop !112

76:                                               ; preds = %44
  %77 = load ptr, ptr %3, align 8, !tbaa !4
  %78 = load ptr, ptr %5, align 8, !tbaa !45
  %79 = getelementptr inbounds nuw %struct.DeintVAAPIContext, ptr %78, i32 0, i32 1
  %80 = load i32, ptr %79, align 8, !tbaa !109
  %81 = load ptr, ptr %5, align 8, !tbaa !45
  %82 = getelementptr inbounds nuw %struct.DeintVAAPIContext, ptr %81, i32 0, i32 1
  %83 = load i32, ptr %82, align 8, !tbaa !109
  %84 = call ptr @deint_vaapi_mode_name(i32 noundef %83)
  call void (ptr, i32, ptr, ...) @av_log(ptr noundef %77, i32 noundef 40, ptr noundef @.str.34, i32 noundef %80, ptr noundef %84)
  br label %125

85:                                               ; preds = %38
  store i32 0, ptr %8, align 4, !tbaa !62
  br label %86

86:                                               ; preds = %106, %85
  %87 = load i32, ptr %8, align 4, !tbaa !62
  %88 = load ptr, ptr %5, align 8, !tbaa !45
  %89 = getelementptr inbounds nuw %struct.DeintVAAPIContext, ptr %88, i32 0, i32 5
  %90 = load i32, ptr %89, align 8, !tbaa !107
  %91 = icmp slt i32 %87, %90
  br i1 %91, label %92, label %109

92:                                               ; preds = %86
  %93 = load ptr, ptr %5, align 8, !tbaa !45
  %94 = getelementptr inbounds nuw %struct.DeintVAAPIContext, ptr %93, i32 0, i32 4
  %95 = load i32, ptr %8, align 4, !tbaa !62
  %96 = sext i32 %95 to i64
  %97 = getelementptr inbounds [5 x %struct._VAProcFilterCapDeinterlacing], ptr %94, i64 0, i64 %96
  %98 = getelementptr inbounds nuw %struct._VAProcFilterCapDeinterlacing, ptr %97, i32 0, i32 0
  %99 = load i32, ptr %98, align 4, !tbaa !110
  %100 = load ptr, ptr %5, align 8, !tbaa !45
  %101 = getelementptr inbounds nuw %struct.DeintVAAPIContext, ptr %100, i32 0, i32 1
  %102 = load i32, ptr %101, align 8, !tbaa !109
  %103 = icmp eq i32 %99, %102
  br i1 %103, label %104, label %105

104:                                              ; preds = %92
  br label %109

105:                                              ; preds = %92
  br label %106

106:                                              ; preds = %105
  %107 = load i32, ptr %8, align 4, !tbaa !62
  %108 = add nsw i32 %107, 1
  store i32 %108, ptr %8, align 4, !tbaa !62
  br label %86, !llvm.loop !113

109:                                              ; preds = %104, %86
  %110 = load i32, ptr %8, align 4, !tbaa !62
  %111 = load ptr, ptr %5, align 8, !tbaa !45
  %112 = getelementptr inbounds nuw %struct.DeintVAAPIContext, ptr %111, i32 0, i32 5
  %113 = load i32, ptr %112, align 8, !tbaa !107
  %114 = icmp sge i32 %110, %113
  br i1 %114, label %115, label %124

115:                                              ; preds = %109
  %116 = load ptr, ptr %3, align 8, !tbaa !4
  %117 = load ptr, ptr %5, align 8, !tbaa !45
  %118 = getelementptr inbounds nuw %struct.DeintVAAPIContext, ptr %117, i32 0, i32 1
  %119 = load i32, ptr %118, align 8, !tbaa !109
  %120 = load ptr, ptr %5, align 8, !tbaa !45
  %121 = getelementptr inbounds nuw %struct.DeintVAAPIContext, ptr %120, i32 0, i32 1
  %122 = load i32, ptr %121, align 8, !tbaa !109
  %123 = call ptr @deint_vaapi_mode_name(i32 noundef %122)
  call void (ptr, i32, ptr, ...) @av_log(ptr noundef %116, i32 noundef 16, ptr noundef @.str.35, i32 noundef %119, ptr noundef %123)
  store i32 -22, ptr %2, align 4
  store i32 1, ptr %9, align 4
  br label %207

124:                                              ; preds = %109
  br label %125

125:                                              ; preds = %124, %76
  %126 = getelementptr inbounds nuw %struct._VAProcFilterParameterBufferDeinterlacing, ptr %7, i32 0, i32 0
  store i32 2, ptr %126, align 4, !tbaa !114
  %127 = load ptr, ptr %5, align 8, !tbaa !45
  %128 = getelementptr inbounds nuw %struct.DeintVAAPIContext, ptr %127, i32 0, i32 1
  %129 = load i32, ptr %128, align 8, !tbaa !109
  %130 = getelementptr inbounds nuw %struct._VAProcFilterParameterBufferDeinterlacing, ptr %7, i32 0, i32 1
  store i32 %129, ptr %130, align 4, !tbaa !115
  %131 = getelementptr inbounds nuw %struct._VAProcFilterParameterBufferDeinterlacing, ptr %7, i32 0, i32 2
  store i32 0, ptr %131, align 4, !tbaa !82
  %132 = load ptr, ptr %3, align 8, !tbaa !4
  %133 = call i32 @ff_vaapi_vpp_make_param_buffers(ptr noundef %132, i32 noundef 42, ptr noundef %7, i64 noundef 28, i32 noundef 1)
  store i32 %133, ptr %6, align 4, !tbaa !62
  %134 = load i32, ptr %6, align 4, !tbaa !62
  %135 = icmp ne i32 %134, 0
  br i1 %135, label %136, label %138

136:                                              ; preds = %125
  %137 = load i32, ptr %6, align 4, !tbaa !62
  store i32 %137, ptr %2, align 4
  store i32 1, ptr %9, align 4
  br label %207

138:                                              ; preds = %125
  %139 = load ptr, ptr %4, align 8, !tbaa !22
  %140 = getelementptr inbounds nuw %struct.VAAPIVPPContext, ptr %139, i32 0, i32 1
  %141 = load ptr, ptr %140, align 8, !tbaa !77
  %142 = getelementptr inbounds nuw %struct.AVVAAPIDeviceContext, ptr %141, i32 0, i32 0
  %143 = load ptr, ptr %142, align 8, !tbaa !78
  %144 = load ptr, ptr %4, align 8, !tbaa !22
  %145 = getelementptr inbounds nuw %struct.VAAPIVPPContext, ptr %144, i32 0, i32 5
  %146 = load i32, ptr %145, align 8, !tbaa !108
  %147 = load ptr, ptr %4, align 8, !tbaa !22
  %148 = getelementptr inbounds nuw %struct.VAAPIVPPContext, ptr %147, i32 0, i32 12
  %149 = getelementptr inbounds [10 x i32], ptr %148, i64 0, i64 0
  %150 = load ptr, ptr %5, align 8, !tbaa !45
  %151 = getelementptr inbounds nuw %struct.DeintVAAPIContext, ptr %150, i32 0, i32 6
  %152 = call i32 @vaQueryVideoProcPipelineCaps(ptr noundef %143, i32 noundef %146, ptr noundef %149, i32 noundef 1, ptr noundef %151)
  store i32 %152, ptr %6, align 4, !tbaa !62
  %153 = load i32, ptr %6, align 4, !tbaa !62
  %154 = icmp ne i32 %153, 0
  br i1 %154, label %155, label %160

155:                                              ; preds = %138
  %156 = load ptr, ptr %3, align 8, !tbaa !4
  %157 = load i32, ptr %6, align 4, !tbaa !62
  %158 = load i32, ptr %6, align 4, !tbaa !62
  %159 = call ptr @vaErrorStr(i32 noundef %158)
  call void (ptr, i32, ptr, ...) @av_log(ptr noundef %156, i32 noundef 16, ptr noundef @.str.36, i32 noundef %157, ptr noundef %159)
  store i32 -5, ptr %2, align 4
  store i32 1, ptr %9, align 4
  br label %207

160:                                              ; preds = %138
  %161 = load ptr, ptr %5, align 8, !tbaa !45
  %162 = getelementptr inbounds nuw %struct.DeintVAAPIContext, ptr %161, i32 0, i32 2
  %163 = load i32, ptr %162, align 4, !tbaa !72
  %164 = icmp eq i32 %163, 2
  br i1 %164, label %165, label %171

165:                                              ; preds = %160
  %166 = load ptr, ptr %5, align 8, !tbaa !45
  %167 = getelementptr inbounds nuw %struct.DeintVAAPIContext, ptr %166, i32 0, i32 6
  %168 = getelementptr inbounds nuw %struct._VAProcPipelineCaps, ptr %167, i32 0, i32 3
  %169 = load i32, ptr %168, align 4, !tbaa !68
  %170 = icmp eq i32 %169, 0
  br label %171

171:                                              ; preds = %165, %160
  %172 = phi i1 [ false, %160 ], [ %170, %165 ]
  %173 = zext i1 %172 to i32
  %174 = load ptr, ptr %5, align 8, !tbaa !45
  %175 = getelementptr inbounds nuw %struct.DeintVAAPIContext, ptr %174, i32 0, i32 10
  store i32 %173, ptr %175, align 8, !tbaa !100
  %176 = load ptr, ptr %5, align 8, !tbaa !45
  %177 = getelementptr inbounds nuw %struct.DeintVAAPIContext, ptr %176, i32 0, i32 6
  %178 = getelementptr inbounds nuw %struct._VAProcPipelineCaps, ptr %177, i32 0, i32 3
  %179 = load i32, ptr %178, align 4, !tbaa !68
  %180 = load ptr, ptr %5, align 8, !tbaa !45
  %181 = getelementptr inbounds nuw %struct.DeintVAAPIContext, ptr %180, i32 0, i32 6
  %182 = getelementptr inbounds nuw %struct._VAProcPipelineCaps, ptr %181, i32 0, i32 2
  %183 = load i32, ptr %182, align 8, !tbaa !65
  %184 = add i32 %179, %183
  %185 = load ptr, ptr %5, align 8, !tbaa !45
  %186 = getelementptr inbounds nuw %struct.DeintVAAPIContext, ptr %185, i32 0, i32 10
  %187 = load i32, ptr %186, align 8, !tbaa !100
  %188 = add i32 %184, %187
  %189 = add i32 %188, 1
  %190 = load ptr, ptr %5, align 8, !tbaa !45
  %191 = getelementptr inbounds nuw %struct.DeintVAAPIContext, ptr %190, i32 0, i32 7
  store i32 %189, ptr %191, align 8, !tbaa !61
  %192 = load ptr, ptr %5, align 8, !tbaa !45
  %193 = getelementptr inbounds nuw %struct.DeintVAAPIContext, ptr %192, i32 0, i32 7
  %194 = load i32, ptr %193, align 8, !tbaa !61
  %195 = icmp sgt i32 %194, 8
  br i1 %195, label %196, label %206

196:                                              ; preds = %171
  %197 = load ptr, ptr %3, align 8, !tbaa !4
  %198 = load ptr, ptr %5, align 8, !tbaa !45
  %199 = getelementptr inbounds nuw %struct.DeintVAAPIContext, ptr %198, i32 0, i32 6
  %200 = getelementptr inbounds nuw %struct._VAProcPipelineCaps, ptr %199, i32 0, i32 2
  %201 = load i32, ptr %200, align 8, !tbaa !65
  %202 = load ptr, ptr %5, align 8, !tbaa !45
  %203 = getelementptr inbounds nuw %struct.DeintVAAPIContext, ptr %202, i32 0, i32 6
  %204 = getelementptr inbounds nuw %struct._VAProcPipelineCaps, ptr %203, i32 0, i32 3
  %205 = load i32, ptr %204, align 4, !tbaa !68
  call void (ptr, i32, ptr, ...) @av_log(ptr noundef %197, i32 noundef 16, ptr noundef @.str.37, i32 noundef %201, i32 noundef %205)
  store i32 -38, ptr %2, align 4
  store i32 1, ptr %9, align 4
  br label %207

206:                                              ; preds = %171
  store i32 0, ptr %2, align 4
  store i32 1, ptr %9, align 4
  br label %207

207:                                              ; preds = %206, %196, %155, %136, %115, %33
  call void @llvm.lifetime.end.p0(i64 4, ptr %8) #7
  call void @llvm.lifetime.end.p0(i64 28, ptr %7) #7
  call void @llvm.lifetime.end.p0(i64 4, ptr %6) #7
  call void @llvm.lifetime.end.p0(i64 8, ptr %5) #7
  call void @llvm.lifetime.end.p0(i64 8, ptr %4) #7
  %208 = load i32, ptr %2, align 4
  ret i32 %208
}