; Function Attrs: nounwind uwtable
define internal i32 @deint_vaapi_build_filter_params(ptr noundef %0) #2 {
  %2 = alloca %struct._VAProcFilterParameterBufferDeinterlacing, align 4
  %3 = getelementptr inbounds nuw i8, ptr %0, i64 72
  %4 = load ptr, ptr %3, align 8, !tbaa !4
  call void @llvm.lifetime.start.p0(i64 28, ptr nonnull %2) #6
  %5 = getelementptr inbounds nuw i8, ptr %4, i64 256
  store i32 5, ptr %5, align 8, !tbaa !94
  %6 = getelementptr inbounds nuw i8, ptr %4, i64 8
  %7 = load ptr, ptr %6, align 8, !tbaa !72
  %8 = load ptr, ptr %7, align 8, !tbaa !73
  %9 = getelementptr inbounds nuw i8, ptr %4, i64 32
  %10 = load i32, ptr %9, align 8, !tbaa !95
  %11 = getelementptr inbounds nuw i8, ptr %4, i64 156
  %12 = tail call i32 @vaQueryVideoProcFilterCaps(ptr noundef %8, i32 noundef %10, i32 noundef 2, ptr noundef nonnull %11, ptr noundef nonnull %5) #6
  %.not = icmp eq i32 %12, 0
  br i1 %.not, label %15, label %13

13:                                               ; preds = %1
  %14 = tail call ptr @vaErrorStr(i32 noundef %12) #6
  tail call void (ptr, i32, ptr, ...) @av_log(ptr noundef nonnull %0, i32 noundef 16, ptr noundef nonnull @.str.33, i32 noundef %12, ptr noundef %14) #6
  br label %67

15:                                               ; preds = %1
  %16 = getelementptr inbounds nuw i8, ptr %4, i64 144
  %17 = load i32, ptr %16, align 8, !tbaa !96
  %18 = icmp eq i32 %17, 0
  %19 = load i32, ptr %5, align 8, !tbaa !94
  %20 = icmp sgt i32 %19, 0
  br i1 %18, label %.preheader, label %.preheader68

.preheader68:                                     ; preds = %15
  br i1 %20, label %.lr.ph.preheader, label %._crit_edge

.lr.ph.preheader:                                 ; preds = %.preheader68
  %wide.trip.count = zext nneg i32 %19 to i64
  br label %.lr.ph

.preheader:                                       ; preds = %15
  br i1 %20, label %.lr.ph71, label %deint_vaapi_mode_name.exit

.lr.ph71:                                         ; preds = %.preheader
  %wide.trip.count77 = zext nneg i32 %19 to i64
  br label %21

21:                                               ; preds = %.lr.ph71, %27
  %indvars.iv74 = phi i64 [ 0, %.lr.ph71 ], [ %indvars.iv.next75, %27 ]
  %22 = phi i32 [ 0, %.lr.ph71 ], [ %28, %27 ]
  %23 = getelementptr inbounds nuw [5 x %struct._VAProcFilterCapDeinterlacing], ptr %11, i64 0, i64 %indvars.iv74
  %24 = load i32, ptr %23, align 4, !tbaa !97
  %25 = icmp ugt i32 %24, %22
  br i1 %25, label %26, label %27

26:                                               ; preds = %21
  store i32 %24, ptr %16, align 8, !tbaa !96
  br label %27

27:                                               ; preds = %21, %26
  %28 = phi i32 [ %22, %21 ], [ %24, %26 ]
  %indvars.iv.next75 = add nuw nsw i64 %indvars.iv74, 1
  %exitcond78.not = icmp eq i64 %indvars.iv.next75, %wide.trip.count77
  br i1 %exitcond78.not, label %._crit_edge72, label %21, !llvm.loop !99

._crit_edge72:                                    ; preds = %27
  %switch.tableidx = add i32 %28, -1
  %29 = icmp ult i32 %switch.tableidx, 4
  br i1 %29, label %switch.lookup, label %deint_vaapi_mode_name.exit

switch.lookup:                                    ; preds = %._crit_edge72
  %30 = zext nneg i32 %switch.tableidx to i64
  %switch.gep = getelementptr inbounds nuw [4 x ptr], ptr @switch.table.deint_vaapi_build_filter_params.1, i64 0, i64 %30
  %switch.load = load ptr, ptr %switch.gep, align 8
  br label %deint_vaapi_mode_name.exit

deint_vaapi_mode_name.exit:                       ; preds = %._crit_edge72, %switch.lookup, %.preheader
  %31 = phi i32 [ 0, %.preheader ], [ %28, %switch.lookup ], [ %28, %._crit_edge72 ]
  %.0.i = phi ptr [ @.str.42, %.preheader ], [ %switch.load, %switch.lookup ], [ @.str.42, %._crit_edge72 ]
  tail call void (ptr, i32, ptr, ...) @av_log(ptr noundef %0, i32 noundef 40, ptr noundef nonnull @.str.34, i32 noundef %31, ptr noundef nonnull %.0.i) #6
  %.pre = load i32, ptr %16, align 8, !tbaa !96
  br label %.thread

32:                                               ; preds = %.lr.ph
  %indvars.iv.next = add nuw nsw i64 %indvars.iv, 1
  %exitcond.not = icmp eq i64 %indvars.iv.next, %wide.trip.count
  br i1 %exitcond.not, label %._crit_edge, label %.lr.ph, !llvm.loop !100

.lr.ph:                                           ; preds = %.lr.ph.preheader, %32
  %indvars.iv = phi i64 [ 0, %.lr.ph.preheader ], [ %indvars.iv.next, %32 ]
  %33 = getelementptr inbounds nuw [5 x %struct._VAProcFilterCapDeinterlacing], ptr %11, i64 0, i64 %indvars.iv
  %34 = load i32, ptr %33, align 4, !tbaa !97
  %35 = icmp eq i32 %34, %17
  br i1 %35, label %.thread, label %32

._crit_edge:                                      ; preds = %32, %.preheader68
  %36 = icmp ult i32 %17, 5
  br i1 %36, label %switch.lookup81, label %deint_vaapi_mode_name.exit67

switch.lookup81:                                  ; preds = %._crit_edge
  %switch.tableidx82 = add nsw i32 %17, -1
  %37 = sext i32 %switch.tableidx82 to i64
  %switch.gep83 = getelementptr inbounds [4 x ptr], ptr @switch.table.deint_vaapi_build_filter_params.1, i64 0, i64 %37
  %switch.load84 = load ptr, ptr %switch.gep83, align 8
  br label %deint_vaapi_mode_name.exit67

deint_vaapi_mode_name.exit67:                     ; preds = %._crit_edge, %switch.lookup81
  %.0.i66 = phi ptr [ %switch.load84, %switch.lookup81 ], [ @.str.42, %._crit_edge ]
  tail call void (ptr, i32, ptr, ...) @av_log(ptr noundef %0, i32 noundef 16, ptr noundef nonnull @.str.35, i32 noundef %17, ptr noundef nonnull %.0.i66) #6
  br label %67

.thread:                                          ; preds = %.lr.ph, %deint_vaapi_mode_name.exit
  %38 = phi i32 [ %.pre, %deint_vaapi_mode_name.exit ], [ %17, %.lr.ph ]
  store i32 2, ptr %2, align 4, !tbaa !101
  %39 = getelementptr inbounds nuw i8, ptr %2, i64 4
  store i32 %38, ptr %39, align 4, !tbaa !102
  %40 = getelementptr inbounds nuw i8, ptr %2, i64 8
  store i32 0, ptr %40, align 4, !tbaa !75
  %41 = call i32 @ff_vaapi_vpp_make_param_buffers(ptr noundef %0, i32 noundef 42, ptr noundef nonnull %2, i64 noundef 28, i32 noundef 1) #6
  %.not64 = icmp eq i32 %41, 0
  br i1 %.not64, label %42, label %67

42:                                               ; preds = %.thread
  %43 = load ptr, ptr %6, align 8, !tbaa !72
  %44 = load ptr, ptr %43, align 8, !tbaa !73
  %45 = load i32, ptr %9, align 8, !tbaa !95
  %46 = getelementptr inbounds nuw i8, ptr %4, i64 76
  %47 = getelementptr inbounds nuw i8, ptr %4, i64 264
  %48 = call i32 @vaQueryVideoProcPipelineCaps(ptr noundef %44, i32 noundef %45, ptr noundef nonnull %46, i32 noundef 1, ptr noundef nonnull %47) #6
  %.not65 = icmp eq i32 %48, 0
  br i1 %.not65, label %._crit_edge79, label %49

49:                                               ; preds = %42
  %50 = call ptr @vaErrorStr(i32 noundef %48) #6
  call void (ptr, i32, ptr, ...) @av_log(ptr noundef %0, i32 noundef 16, ptr noundef nonnull @.str.36, i32 noundef %48, ptr noundef %50) #6
  br label %67

._crit_edge79:                                    ; preds = %42
  %51 = getelementptr inbounds nuw i8, ptr %4, i64 148
  %52 = load i32, ptr %51, align 4, !tbaa !66
  %53 = icmp eq i32 %52, 2
  %54 = getelementptr inbounds nuw i8, ptr %4, i64 276
  %55 = load i32, ptr %54, align 4, !tbaa !59
  %56 = icmp eq i32 %55, 0
  %narrow = and i1 %53, %56
  %57 = zext i1 %narrow to i32
  %58 = getelementptr inbounds nuw i8, ptr %4, i64 512
  store i32 %57, ptr %58, align 8, !tbaa !92
  %59 = getelementptr inbounds nuw i8, ptr %4, i64 272
  %60 = load i32, ptr %59, align 8, !tbaa !57
  %61 = select i1 %narrow, i32 2, i32 1
  %62 = add i32 %61, %55
  %63 = add i32 %62, %60
  %64 = getelementptr inbounds nuw i8, ptr %4, i64 440
  store i32 %63, ptr %64, align 8, !tbaa !54
  %65 = icmp sgt i32 %63, 8
  br i1 %65, label %66, label %67

66:                                               ; preds = %._crit_edge79
  call void (ptr, i32, ptr, ...) @av_log(ptr noundef %0, i32 noundef 16, ptr noundef nonnull @.str.37, i32 noundef %60, i32 noundef %55) #6
  br label %67

67:                                               ; preds = %._crit_edge79, %.thread, %66, %49, %deint_vaapi_mode_name.exit67, %13
  %.058 = phi i32 [ -5, %13 ], [ -5, %49 ], [ -38, %66 ], [ -22, %deint_vaapi_mode_name.exit67 ], [ %41, %.thread ], [ 0, %._crit_edge79 ]
  call void @llvm.lifetime.end.p0(i64 28, ptr nonnull %2) #6
  ret i32 %.058
}